target datalayout = "e-m:e-p270:32:32-p271:32:32-p272:64:64-i64:64-i128:128-f80:128-n8:16:32:64-S128"
target triple = "x86_64-pc-linux-gnu"

%struct.A_Const = type { i32, %union.ValUnion, i8, i32 }
%union.ValUnion = type { %struct.Float }
%struct.Float = type { i32, ptr }
%struct.Node = type { i32 }

@.str.316 = private unnamed_addr constant [12 x i8] c"readfuncs.c\00", align 1
@.str.346 = private unnamed_addr constant [5 x i8] c"NULL\00", align 1
@.str.347 = private unnamed_addr constant [27 x i8] c"unrecognized node type: %d\00", align 1
@__func__._readA_Const = private unnamed_addr constant [13 x i8] c"_readA_Const\00", align 1

; Function Attrs: inlinehint nounwind uwtable
define internal ptr @newNode(i64 noundef %0, i32 noundef %1) #7 {
  %3 = alloca i64, align 8
  %4 = alloca i32, align 4
  %5 = alloca ptr, align 8
  store i64 %0, ptr %3, align 8
  store i32 %1, ptr %4, align 4
  call void @llvm.lifetime.start.p0(i64 8, ptr %5) #9
  %6 = load i64, ptr %3, align 8
  %7 = call ptr @palloc0(i64 noundef %6)
  store ptr %7, ptr %5, align 8
  %8 = load i32, ptr %4, align 4
  %9 = load ptr, ptr %5, align 8
  %10 = getelementptr inbounds nuw %struct.Node, ptr %9, i32 0, i32 0
  store i32 %8, ptr %10, align 4
  %11 = load ptr, ptr %5, align 8
  call void @llvm.lifetime.end.p0(i64 8, ptr %5) #9
  ret ptr %11
}

; Function Attrs: nounwind uwtable
define internal ptr @_readA_Const() #0 {
  %1 = alloca ptr, align 8
  %2 = alloca ptr, align 8
  %3 = alloca i32, align 4
  %4 = alloca ptr, align 8
  call void @llvm.lifetime.start.p0(i64 8, ptr %1) #9
  %5 = call ptr @newNode(i64 noundef 32, i32 noundef 72)
  store ptr %5, ptr %1, align 8
  call void @llvm.lifetime.start.p0(i64 8, ptr %2) #9
  call void @llvm.lifetime.start.p0(i64 4, ptr %3) #9
  %6 = call ptr @pg_strtok(ptr noundef %3)
  store ptr %6, ptr %2, align 8
  %7 = load i32, ptr %3, align 4
  %8 = icmp eq i32 %7, 4
  br i1 %8, label %9, label %16

9:                                                ; preds = %0
  %10 = load ptr, ptr %2, align 8
  %11 = call i32 @strncmp(ptr noundef %10, ptr noundef @.str.346, i64 noundef 4) #11
  %12 = icmp eq i32 %11, 0
  br i1 %12, label %13, label %16

13:                                               ; preds = %9
  %14 = load ptr, ptr %1, align 8
  %15 = getelementptr inbounds nuw %struct.A_Const, ptr %14, i32 0, i32 2
  store i8 1, ptr %15, align 8
  br label %56

16:                                               ; preds = %9, %0
  call void @llvm.lifetime.start.p0(i64 8, ptr %4) #9
  %17 = call ptr @nodeRead(ptr noundef null, i32 noundef 0)
  store ptr %17, ptr %4, align 8
  %18 = load ptr, ptr %4, align 8
  %19 = getelementptr inbounds nuw %struct.Node, ptr %18, i32 0, i32 0
  %20 = load i32, ptr %19, align 4
  switch i32 %20, label %41 [
    i32 464, label %21
    i32 465, label %25
    i32 466, label %29
    i32 467, label %33
    i32 468, label %37
  ]

21:                                               ; preds = %16
  %22 = load ptr, ptr %1, align 8
  %23 = getelementptr inbounds nuw %struct.A_Const, ptr %22, i32 0, i32 1
  %24 = load ptr, ptr %4, align 8
  call void @llvm.memcpy.p0.p0.i64(ptr align 8 %23, ptr align 8 %24, i64 8, i1 false)
  br label %55

25:                                               ; preds = %16
  %26 = load ptr, ptr %1, align 8
  %27 = getelementptr inbounds nuw %struct.A_Const, ptr %26, i32 0, i32 1
  %28 = load ptr, ptr %4, align 8
  call void @llvm.memcpy.p0.p0.i64(ptr align 8 %27, ptr align 8 %28, i64 16, i1 false)
  br label %55

29:                                               ; preds = %16
  %30 = load ptr, ptr %1, align 8
  %31 = getelementptr inbounds nuw %struct.A_Const, ptr %30, i32 0, i32 1
  %32 = load ptr, ptr %4, align 8
  call void @llvm.memcpy.p0.p0.i64(ptr align 8 %31, ptr align 8 %32, i64 8, i1 false)
  br label %55

33:                                               ; preds = %16
  %34 = load ptr, ptr %1, align 8
  %35 = getelementptr inbounds nuw %struct.A_Const, ptr %34, i32 0, i32 1
  %36 = load ptr, ptr %4, align 8
  call void @llvm.memcpy.p0.p0.i64(ptr align 8 %35, ptr align 8 %36, i64 16, i1 false)
  br label %55

37:                                               ; preds = %16
  %38 = load ptr, ptr %1, align 8
  %39 = getelementptr inbounds nuw %struct.A_Const, ptr %38, i32 0, i32 1
  %40 = load ptr, ptr %4, align 8
  call void @llvm.memcpy.p0.p0.i64(ptr align 8 %39, ptr align 8 %40, i64 16, i1 false)
  br label %55

41:                                               ; preds = %16
  br label %42

42:                                               ; preds = %41
  br i1 true, label %43, label %45

43:                                               ; preds = %42
  %44 = call zeroext i1 @errstart_cold(i32 noundef 21, ptr noundef null) #10
  br i1 %44, label %47, label %52

45:                                               ; preds = %42
  %46 = call zeroext i1 @errstart(i32 noundef 21, ptr noundef null)
  br i1 %46, label %47, label %52

47:                                               ; preds = %45, %43
  %48 = load ptr, ptr %4, align 8
  %49 = getelementptr inbounds nuw %struct.Node, ptr %48, i32 0, i32 0
  %50 = load i32, ptr %49, align 4
  %51 = call i32 (ptr, ...) @errmsg_internal(ptr noundef @.str.347, i32 noundef %50)
  call void @errfinish(ptr noundef @.str.316, i32 noundef 336, ptr noundef @__func__._readA_Const)
  br label %52

52:                                               ; preds = %47, %45, %43
  unreachable

53:                                               ; No predecessors!
  br label %54

54:                                               ; preds = %53
  br label %55

55:                                               ; preds = %54, %37, %33, %29, %25, %21
  call void @llvm.lifetime.end.p0(i64 8, ptr %4) #9
  br label %56

56:                                               ; preds = %55, %13
  %57 = call ptr @pg_strtok(ptr noundef %3)
  store ptr %57, ptr %2, align 8
  %58 = call ptr @pg_strtok(ptr noundef %3)
  store ptr %58, ptr %2, align 8
  %59 = load ptr, ptr %1, align 8
  %60 = getelementptr inbounds nuw %struct.A_Const, ptr %59, i32 0, i32 3
  store i32 -1, ptr %60, align 4
  %61 = load ptr, ptr %1, align 8
  call void @llvm.lifetime.end.p0(i64 4, ptr %3) #9
  call void @llvm.lifetime.end.p0(i64 8, ptr %2) #9
  call void @llvm.lifetime.end.p0(i64 8, ptr %1) #9
  ret ptr %61
}