; Function Attrs: nounwind uwtable
define internal fastcc noundef ptr @_readA_Const() unnamed_addr #0 {
  %1 = alloca i32, align 4
  %2 = tail call noundef ptr @palloc0(i64 noundef 32) #10
  store i32 72, ptr %2, align 4
  call void @llvm.lifetime.start.p0(i64 4, ptr nonnull %1) #10
  %3 = call ptr @pg_strtok(ptr noundef nonnull %1) #10
  %4 = load i32, ptr %1, align 4
  %5 = icmp eq i32 %4, 4
  br i1 %5, label %6, label %11

6:                                                ; preds = %0
  %7 = call i32 @strncmp(ptr noundef nonnull dereferenceable(1) %3, ptr noundef nonnull dereferenceable(5) @.str.346, i64 noundef 4) #12
  %8 = icmp eq i32 %7, 0
  br i1 %8, label %9, label %11

9:                                                ; preds = %6
  %10 = getelementptr inbounds nuw i8, ptr %2, i64 24
  store i8 1, ptr %10, align 8
  br label %30

11:                                               ; preds = %6, %0
  %12 = call ptr @nodeRead(ptr noundef null, i32 noundef 0) #10
  %13 = load i32, ptr %12, align 4
  switch i32 %13, label %26 [
    i32 464, label %14
    i32 465, label %17
    i32 466, label %19
    i32 467, label %22
    i32 468, label %24
  ]

14:                                               ; preds = %11
  %15 = getelementptr inbounds nuw i8, ptr %2, i64 8
  %16 = load i64, ptr %12, align 8
  store i64 %16, ptr %15, align 8
  br label %30

17:                                               ; preds = %11
  %18 = getelementptr inbounds nuw i8, ptr %2, i64 8
  call void @llvm.memcpy.p0.p0.i64(ptr noundef nonnull align 8 dereferenceable(16) %18, ptr noundef nonnull align 8 dereferenceable(16) %12, i64 16, i1 false)
  br label %30

19:                                               ; preds = %11
  %20 = getelementptr inbounds nuw i8, ptr %2, i64 8
  %21 = load i64, ptr %12, align 8
  store i64 %21, ptr %20, align 8
  br label %30

22:                                               ; preds = %11
  %23 = getelementptr inbounds nuw i8, ptr %2, i64 8
  call void @llvm.memcpy.p0.p0.i64(ptr noundef nonnull align 8 dereferenceable(16) %23, ptr noundef nonnull align 8 dereferenceable(16) %12, i64 16, i1 false)
  br label %30

24:                                               ; preds = %11
  %25 = getelementptr inbounds nuw i8, ptr %2, i64 8
  call void @llvm.memcpy.p0.p0.i64(ptr noundef nonnull align 8 dereferenceable(16) %25, ptr noundef nonnull align 8 dereferenceable(16) %12, i64 16, i1 false)
  br label %30

26:                                               ; preds = %11
  %27 = call zeroext i1 @errstart_cold(i32 noundef 21, ptr noundef null) #11
  call void @llvm.assume(i1 %27)
  %28 = load i32, ptr %12, align 4
  %29 = call i32 (ptr, ...) @errmsg_internal(ptr noundef nonnull @.str.347, i32 noundef %28) #10
  call void @errfinish(ptr noundef nonnull @.str.316, i32 noundef 336, ptr noundef nonnull @__func__._readA_Const) #10
  unreachable

30:                                               ; preds = %14, %17, %19, %22, %24, %9
  %31 = call ptr @pg_strtok(ptr noundef nonnull %1) #10
  %32 = call ptr @pg_strtok(ptr noundef nonnull %1) #10
  %33 = getelementptr inbounds nuw i8, ptr %2, i64 28
  store i32 -1, ptr %33, align 4
  call void @llvm.lifetime.end.p0(i64 4, ptr nonnull %1) #10
  ret ptr %2
}